target datalayout = "e-m:e-p270:32:32-p271:32:32-p272:64:64-i64:64-i128:128-f80:128-n8:16:32:64-S128"
target triple = "x86_64-pc-linux-gnu"

%struct.BackendGlobalData = type <{ ptr, ptr, i8, i8, i8, i8, i8, i8, i8, i8, i8, [3 x i8], i32, ptr, ptr, ptr, ptr, ptr, ptr, ptr, ptr, ptr, ptr, ptr, ptr, ptr, i32, %struct.jvmtiCapabilities, i8, [3 x i8], %struct.jvmtiEventCallbacks, ptr, ptr, ptr, ptr, ptr, ptr, ptr, i32, [4 x i8], ptr, i64, i32, [4 x i8], ptr, i32, i32, i8, i8, [6 x i8] }>
%struct.jvmtiCapabilities = type { i64, i64 }
%struct.jvmtiEventCallbacks = type { ptr, ptr, ptr, ptr, ptr, ptr, ptr, ptr, ptr, ptr, ptr, ptr, ptr, ptr, ptr, ptr, ptr, ptr, ptr, ptr, ptr, ptr, ptr, ptr, ptr, ptr, ptr, ptr, ptr, ptr, ptr, ptr, ptr, ptr, ptr, ptr, ptr, ptr, ptr }
%struct.jvmtiInterface_1_ = type { ptr, ptr, ptr, ptr, ptr, ptr, ptr, ptr, ptr, ptr, ptr, ptr, ptr, ptr, ptr, ptr, ptr, ptr, ptr, ptr, ptr, ptr, ptr, ptr, ptr, ptr, ptr, ptr, ptr, ptr, ptr, ptr, ptr, ptr, ptr, ptr, ptr, ptr, ptr, ptr, ptr, ptr, ptr, ptr, ptr, ptr, ptr, ptr, ptr, ptr, ptr, ptr, ptr, ptr, ptr, ptr, ptr, ptr, ptr, ptr, ptr, ptr, ptr, ptr, ptr, ptr, ptr, ptr, ptr, ptr, ptr, ptr, ptr, ptr, ptr, ptr, ptr, ptr, ptr, ptr, ptr, ptr, ptr, ptr, ptr, ptr, ptr, ptr, ptr, ptr, ptr, ptr, ptr, ptr, ptr, ptr, ptr, ptr, ptr, ptr, ptr, ptr, ptr, ptr, ptr, ptr, ptr, ptr, ptr, ptr, ptr, ptr, ptr, ptr, ptr, ptr, ptr, ptr, ptr, ptr, ptr, ptr, ptr, ptr, ptr, ptr, ptr, ptr, ptr, ptr, ptr, ptr, ptr, ptr, ptr, ptr, ptr, ptr, ptr, ptr, ptr, ptr, ptr, ptr, ptr, ptr, ptr, ptr, ptr, ptr, ptr, ptr, ptr, ptr, ptr, ptr }
%struct.EventInfo = type { i32, ptr, i8, ptr, ptr, i64, ptr, %union.anon }
%union.anon = type { %struct.anon.0 }
%struct.anon.0 = type { ptr, ptr, i8, %union.jvalue }
%union.jvalue = type { i64 }
%struct.JNINativeInterface_ = type { ptr, ptr, ptr, ptr, ptr, ptr, ptr, ptr, ptr, ptr, ptr, ptr, ptr, ptr, ptr, ptr, ptr, ptr, ptr, ptr, ptr, ptr, ptr, ptr, ptr, ptr, ptr, ptr, ptr, ptr, ptr, ptr, ptr, ptr, ptr, ptr, ptr, ptr, ptr, ptr, ptr, ptr, ptr, ptr, ptr, ptr, ptr, ptr, ptr, ptr, ptr, ptr, ptr, ptr, ptr, ptr, ptr, ptr, ptr, ptr, ptr, ptr, ptr, ptr, ptr, ptr, ptr, ptr, ptr, ptr, ptr, ptr, ptr, ptr, ptr, ptr, ptr, ptr, ptr, ptr, ptr, ptr, ptr, ptr, ptr, ptr, ptr, ptr, ptr, ptr, ptr, ptr, ptr, ptr, ptr, ptr, ptr, ptr, ptr, ptr, ptr, ptr, ptr, ptr, ptr, ptr, ptr, ptr, ptr, ptr, ptr, ptr, ptr, ptr, ptr, ptr, ptr, ptr, ptr, ptr, ptr, ptr, ptr, ptr, ptr, ptr, ptr, ptr, ptr, ptr, ptr, ptr, ptr, ptr, ptr, ptr, ptr, ptr, ptr, ptr, ptr, ptr, ptr, ptr, ptr, ptr, ptr, ptr, ptr, ptr, ptr, ptr, ptr, ptr, ptr, ptr, ptr, ptr, ptr, ptr, ptr, ptr, ptr, ptr, ptr, ptr, ptr, ptr, ptr, ptr, ptr, ptr, ptr, ptr, ptr, ptr, ptr, ptr, ptr, ptr, ptr, ptr, ptr, ptr, ptr, ptr, ptr, ptr, ptr, ptr, ptr, ptr, ptr, ptr, ptr, ptr, ptr, ptr, ptr, ptr, ptr, ptr, ptr, ptr, ptr, ptr, ptr, ptr, ptr, ptr, ptr, ptr, ptr, ptr, ptr, ptr, ptr, ptr, ptr, ptr, ptr, ptr, ptr, ptr, ptr, ptr, ptr, ptr, ptr, ptr, ptr, ptr, ptr, ptr, ptr }

@stderr = external global ptr, align 8
@.str = private unnamed_addr constant [17 x i8] c"JDWP exit error \00", align 1
@.str.1 = private unnamed_addr constant [2 x i8] c"\0A\00", align 1
@.str.2 = private unnamed_addr constant [19 x i8] c"%s(%d): %s [%s:%d]\00", align 1
@.str.4 = private unnamed_addr constant [55 x i8] c"src/jdk.jdwp.agent/share/native/libjdwp/eventHandler.c\00", align 1
@gdata = external global ptr, align 8
@active_callbacks = internal global i32 0, align 4
@vm_death_callback_active = internal global i8 0, align 1
@callbackLock = internal global ptr null, align 8
@callbackBlock = internal global ptr null, align 8
@.str.14 = private unnamed_addr constant [6 x i8] c"JVMTI\00", align 1
@.str.15 = private unnamed_addr constant [5 x i8] c"%s()\00", align 1
@.str.25 = private unnamed_addr constant [5 x i8] c"MISC\00", align 1
@.str.28 = private unnamed_addr constant [3 x i8] c"CB\00", align 1
@.str.30 = private unnamed_addr constant [35 x i8] c"Problems tracking active callbacks\00", align 1
@.str.34 = private unnamed_addr constant [4 x i8] c"JNI\00", align 1
@.str.64 = private unnamed_addr constant [17 x i8] c"GetFrameLocation\00", align 1
@.str.68 = private unnamed_addr constant [25 x i8] c"cbMonitorWait: thread=%p\00", align 1
@.str.69 = private unnamed_addr constant [18 x i8] c"END cbMonitorWait\00", align 1
@.str.70 = private unnamed_addr constant [15 x i8] c"GetObjectClass\00", align 1

; Function Attrs: nounwind uwtable
define internal ptr @getObjectClass(ptr noundef %0) #0 {
  %2 = alloca ptr, align 8
  %3 = alloca ptr, align 8
  %4 = alloca ptr, align 8
  store ptr %0, ptr %2, align 8
  %5 = call ptr @getEnv()
  store ptr %5, ptr %4, align 8
  %6 = load ptr, ptr @gdata, align 8
  %7 = getelementptr inbounds %struct.BackendGlobalData, ptr %6, i32 0, i32 38
  %8 = load i32, ptr %7, align 8
  %9 = and i32 %8, 2
  %10 = icmp ne i32 %9, 0
  br i1 %10, label %11, label %12

11:                                               ; preds = %1
  call void @log_message_begin(ptr noundef @.str.34, ptr noundef @.str.4, i32 noundef 711)
  call void (ptr, ...) @log_message_end(ptr noundef @.str.15, ptr noundef @.str.70)
  br label %13

12:                                               ; preds = %1
  br label %13

13:                                               ; preds = %12, %11
  %14 = load ptr, ptr %4, align 8
  %15 = load ptr, ptr %14, align 8
  %16 = getelementptr inbounds %struct.JNINativeInterface_, ptr %15, i32 0, i32 31
  %17 = load ptr, ptr %16, align 8
  %18 = load ptr, ptr %4, align 8
  %19 = load ptr, ptr %2, align 8
  %20 = call ptr %17(ptr noundef %18, ptr noundef %19)
  store ptr %20, ptr %3, align 8
  %21 = load ptr, ptr %3, align 8
  ret ptr %21
}

; Function Attrs: nounwind uwtable
define internal void @cbMonitorWait(ptr noundef %0, ptr noundef %1, ptr noundef %2, ptr noundef %3, i64 noundef %4) #0 {
  %6 = alloca ptr, align 8
  %7 = alloca ptr, align 8
  %8 = alloca ptr, align 8
  %9 = alloca ptr, align 8
  %10 = alloca i64, align 8
  %11 = alloca %struct.EventInfo, align 8
  %12 = alloca i32, align 4
  %13 = alloca ptr, align 8
  %14 = alloca i64, align 8
  %15 = alloca i8, align 1
  store ptr %0, ptr %6, align 8
  store ptr %1, ptr %7, align 8
  store ptr %2, ptr %8, align 8
  store ptr %3, ptr %9, align 8
  store i64 %4, ptr %10, align 8
  %16 = load ptr, ptr @gdata, align 8
  %17 = getelementptr inbounds %struct.BackendGlobalData, ptr %16, i32 0, i32 38
  %18 = load i32, ptr %17, align 8
  %19 = and i32 %18, 64
  %20 = icmp ne i32 %19, 0
  br i1 %20, label %21, label %23

21:                                               ; preds = %5
  call void @log_message_begin(ptr noundef @.str.28, ptr noundef @.str.4, i32 noundef 1164)
  %22 = load ptr, ptr %8, align 8
  call void (ptr, ...) @log_message_end(ptr noundef @.str.68, ptr noundef %22)
  br label %24

23:                                               ; preds = %5
  br label %24

24:                                               ; preds = %23, %21
  store i8 1, ptr %15, align 1
  %25 = load ptr, ptr @callbackLock, align 8
  call void @debugMonitorEnter(ptr noundef %25)
  %26 = load i8, ptr @vm_death_callback_active, align 1
  %27 = icmp ne i8 %26, 0
  br i1 %27, label %28, label %32

28:                                               ; preds = %24
  %29 = load ptr, ptr @callbackLock, align 8
  call void @debugMonitorExit(ptr noundef %29)
  %30 = load ptr, ptr @callbackBlock, align 8
  call void @debugMonitorEnter(ptr noundef %30)
  %31 = load ptr, ptr @callbackBlock, align 8
  call void @debugMonitorExit(ptr noundef %31)
  br label %36

32:                                               ; preds = %24
  %33 = load i32, ptr @active_callbacks, align 4
  %34 = add nsw i32 %33, 1
  store i32 %34, ptr @active_callbacks, align 4
  store i8 0, ptr %15, align 1
  %35 = load ptr, ptr @callbackLock, align 8
  call void @debugMonitorExit(ptr noundef %35)
  br label %36

36:                                               ; preds = %32, %28
  %37 = load i8, ptr %15, align 1
  %38 = icmp ne i8 %37, 0
  br i1 %38, label %108, label %39

39:                                               ; preds = %36
  call void @llvm.memset.p0.i64(ptr align 8 %11, i8 0, i64 88, i1 false)
  %40 = getelementptr inbounds %struct.EventInfo, ptr %11, i32 0, i32 0
  store i32 17, ptr %40, align 8
  %41 = load ptr, ptr %8, align 8
  %42 = getelementptr inbounds %struct.EventInfo, ptr %11, i32 0, i32 1
  store ptr %41, ptr %42, align 8
  %43 = load ptr, ptr %9, align 8
  %44 = getelementptr inbounds %struct.EventInfo, ptr %11, i32 0, i32 6
  store ptr %43, ptr %44, align 8
  %45 = load ptr, ptr %9, align 8
  %46 = call ptr @getObjectClass(ptr noundef %45)
  %47 = getelementptr inbounds %struct.EventInfo, ptr %11, i32 0, i32 3
  store ptr %46, ptr %47, align 8
  %48 = load i64, ptr %10, align 8
  %49 = getelementptr inbounds %struct.EventInfo, ptr %11, i32 0, i32 7
  store i64 %48, ptr %49, align 8
  %50 = load ptr, ptr @gdata, align 8
  %51 = getelementptr inbounds %struct.BackendGlobalData, ptr %50, i32 0, i32 38
  %52 = load i32, ptr %51, align 8
  %53 = and i32 %52, 4
  %54 = icmp ne i32 %53, 0
  br i1 %54, label %55, label %56

55:                                               ; preds = %39
  call void @log_message_begin(ptr noundef @.str.14, ptr noundef @.str.4, i32 noundef 1181)
  call void (ptr, ...) @log_message_end(ptr noundef @.str.15, ptr noundef @.str.64)
  br label %57

56:                                               ; preds = %39
  br label %57

57:                                               ; preds = %56, %55
  %58 = load ptr, ptr @gdata, align 8
  %59 = getelementptr inbounds %struct.BackendGlobalData, ptr %58, i32 0, i32 0
  %60 = load ptr, ptr %59, align 8
  %61 = load ptr, ptr %60, align 8
  %62 = getelementptr inbounds %struct.jvmtiInterface_1_, ptr %61, i32 0, i32 18
  %63 = load ptr, ptr %62, align 8
  %64 = load ptr, ptr @gdata, align 8
  %65 = getelementptr inbounds %struct.BackendGlobalData, ptr %64, i32 0, i32 0
  %66 = load ptr, ptr %65, align 8
  %67 = load ptr, ptr %8, align 8
  %68 = call i32 %63(ptr noundef %66, ptr noundef %67, i32 noundef 0, ptr noundef %13, ptr noundef %14)
  store i32 %68, ptr %12, align 4
  %69 = load i32, ptr %12, align 4
  %70 = icmp eq i32 %69, 0
  br i1 %70, label %71, label %76

71:                                               ; preds = %57
  %72 = load i64, ptr %14, align 8
  %73 = getelementptr inbounds %struct.EventInfo, ptr %11, i32 0, i32 5
  store i64 %72, ptr %73, align 8
  %74 = load ptr, ptr %13, align 8
  %75 = getelementptr inbounds %struct.EventInfo, ptr %11, i32 0, i32 4
  store ptr %74, ptr %75, align 8
  br label %78

76:                                               ; preds = %57
  %77 = getelementptr inbounds %struct.EventInfo, ptr %11, i32 0, i32 5
  store i64 -1, ptr %77, align 8
  br label %78

78:                                               ; preds = %76, %71
  %79 = load ptr, ptr %7, align 8
  call void @event_callback(ptr noundef %79, ptr noundef %11)
  %80 = load ptr, ptr @callbackLock, align 8
  call void @debugMonitorEnter(ptr noundef %80)
  %81 = load i32, ptr @active_callbacks, align 4
  %82 = add nsw i32 %81, -1
  store i32 %82, ptr @active_callbacks, align 4
  %83 = load i32, ptr @active_callbacks, align 4
  %84 = icmp slt i32 %83, 0
  br i1 %84, label %85, label %88

85:                                               ; preds = %78
  %86 = load ptr, ptr @stderr, align 8
  %87 = call ptr @jvmtiErrorText(i32 noundef 0)
  call void (ptr, ptr, ptr, ptr, ...) @print_message(ptr noundef %86, ptr noundef @.str, ptr noundef @.str.1, ptr noundef @.str.2, ptr noundef %87, i32 noundef 0, ptr noundef @.str.30, ptr noundef @.str.4, i32 noundef 1190)
  call void @debugInit_exit(i32 noundef 0, ptr noundef @.str.30)
  br label %88

88:                                               ; preds = %85, %78
  %89 = load i8, ptr @vm_death_callback_active, align 1
  %90 = icmp ne i8 %89, 0
  br i1 %90, label %91, label %100

91:                                               ; preds = %88
  %92 = load i32, ptr @active_callbacks, align 4
  %93 = icmp eq i32 %92, 0
  br i1 %93, label %94, label %96

94:                                               ; preds = %91
  %95 = load ptr, ptr @callbackLock, align 8
  call void @debugMonitorNotifyAll(ptr noundef %95)
  br label %96

96:                                               ; preds = %94, %91
  %97 = load ptr, ptr @callbackLock, align 8
  call void @debugMonitorExit(ptr noundef %97)
  %98 = load ptr, ptr @callbackBlock, align 8
  call void @debugMonitorEnter(ptr noundef %98)
  %99 = load ptr, ptr @callbackBlock, align 8
  call void @debugMonitorExit(ptr noundef %99)
  br label %107

100:                                              ; preds = %88
  %101 = load i32, ptr @active_callbacks, align 4
  %102 = icmp eq i32 %101, 0
  br i1 %102, label %103, label %105

103:                                              ; preds = %100
  %104 = load ptr, ptr @callbackLock, align 8
  call void @debugMonitorNotifyAll(ptr noundef %104)
  br label %105

105:                                              ; preds = %103, %100
  %106 = load ptr, ptr @callbackLock, align 8
  call void @debugMonitorExit(ptr noundef %106)
  br label %107

107:                                              ; preds = %105, %96
  br label %108

108:                                              ; preds = %107, %36
  %109 = load ptr, ptr @gdata, align 8
  %110 = getelementptr inbounds %struct.BackendGlobalData, ptr %109, i32 0, i32 38
  %111 = load i32, ptr %110, align 8
  %112 = and i32 %111, 8
  %113 = icmp ne i32 %112, 0
  br i1 %113, label %114, label %115

114:                                              ; preds = %108
  call void @log_message_begin(ptr noundef @.str.25, ptr noundef @.str.4, i32 noundef 1192)
  call void (ptr, ...) @log_message_end(ptr noundef @.str.69)
  br label %116

115:                                              ; preds = %108
  br label %116

116:                                              ; preds = %115, %114
  ret void
}